; Function Attrs: mustprogress uwtable
define hidden void @_ZN26model_reconstruction_trail19get_model_converterEv(ptr noalias nocapture writeonly sret(%class.ref) align 8 %agg.result, ptr nocapture noundef nonnull readonly align 8 dereferenceable(97) %this) local_unnamed_addr #3 align 2 personality ptr @__gxx_personality_v0 {
_ZN3refI23generic_model_converterEC2EPS0_.exit:
  %mc = alloca %class.ref.68, align 8
  %call = tail call noalias noundef ptr @_ZN6memory8allocateEm(i64 noundef 80)
  %0 = load ptr, ptr %this, align 8
  tail call void @_ZN23generic_model_converterC2ER11ast_managerPKc(ptr noundef nonnull align 8 dereferenceable(80) %call, ptr noundef nonnull align 8 dereferenceable(976) %0, ptr noundef nonnull @.str)
  store ptr %call, ptr %mc, align 8
  %m_ref_count.i.i.i = getelementptr inbounds i8, ptr %call, i64 8
  %1 = load i32, ptr %m_ref_count.i.i.i, align 8
  %inc.i.i.i = add i32 %1, 1
  store i32 %inc.i.i.i, ptr %m_ref_count.i.i.i, align 8
  invoke void @_ZN26model_reconstruction_trail6appendER23generic_model_converter(ptr noundef nonnull align 8 dereferenceable(97) %this, ptr noundef nonnull align 8 dereferenceable(80) %call)
          to label %if.then.i.i6 unwind label %lpad

if.then.i.i6:                                     ; preds = %_ZN3refI23generic_model_converterEC2EPS0_.exit
  store ptr %call, ptr %agg.result, align 8
  %2 = load i32, ptr %m_ref_count.i.i.i, align 8
  %cmp.i.i.i = icmp eq i32 %2, 0
  br i1 %cmp.i.i.i, label %if.then.i.i.i, label %_ZN3refI23generic_model_converterED2Ev.exit

if.then.i.i.i:                                    ; preds = %if.then.i.i6
  %vtable.i.i.i.i = load ptr, ptr %call, align 8
  %3 = load ptr, ptr %vtable.i.i.i.i, align 8
  tail call void %3(ptr noundef nonnull align 8 dereferenceable(12) %call) #13
  invoke void @_ZN6memory10deallocateEPv(ptr noundef nonnull %call)
          to label %_ZN3refI23generic_model_converterED2Ev.exit unwind label %terminate.lpad.i

terminate.lpad.i:                                 ; preds = %if.then.i.i.i
  %4 = landingpad { ptr, i32 }
          catch ptr null
  %5 = extractvalue { ptr, i32 } %4, 0
  tail call void @__clang_call_terminate(ptr %5) #14
  unreachable

_ZN3refI23generic_model_converterED2Ev.exit:      ; preds = %if.then.i.i6, %if.then.i.i.i
  ret void

lpad:                                             ; preds = %_ZN3refI23generic_model_converterEC2EPS0_.exit
  %6 = landingpad { ptr, i32 }
          cleanup
  call void @_ZN3refI23generic_model_converterED2Ev(ptr noundef nonnull align 8 dereferenceable(8) %mc) #13
  resume { ptr, i32 } %6
}